; Function Attrs: mustprogress nounwind uwtable
define void @_ZN7glslang8TProgramD2Ev(ptr noundef nonnull align 8 dereferenceable(497) initializes((0, 8)) %0) unnamed_addr #3 align 2 {
  store ptr getelementptr inbounds nuw inrange(-16, 16) (i8, ptr @_ZTVN7glslang8TProgramE, i64 16), ptr %0, align 8
  %2 = getelementptr inbounds nuw i8, ptr %0, i64 480
  %3 = load ptr, ptr %2, align 8
  %4 = icmp eq ptr %3, null
  br i1 %4, label %7, label %5

5:                                                ; preds = %1
  %6 = getelementptr inbounds nuw i8, ptr %3, i64 48
  tail call void @_ZNSt7__cxx1112basic_stringIcSt11char_traitsIcESaIcEED1Ev(ptr noundef nonnull align 8 dereferenceable(48) %6) #24
  tail call void @_ZNSt7__cxx1112basic_stringIcSt11char_traitsIcESaIcEED1Ev(ptr noundef nonnull align 8 dereferenceable(96) %3) #24
  tail call void @_ZdlPvm(ptr noundef nonnull %3, i64 noundef 96) #27
  br label %7

7:                                                ; preds = %5, %1
  %8 = getelementptr inbounds nuw i8, ptr %0, i64 488
  %9 = load ptr, ptr %8, align 8
  %10 = icmp eq ptr %9, null
  br i1 %10, label %15, label %11

11:                                               ; preds = %7
  %12 = load ptr, ptr %9, align 8
  %13 = getelementptr inbounds nuw i8, ptr %12, i64 8
  %14 = load ptr, ptr %13, align 8
  tail call void %14(ptr noundef nonnull align 8 dereferenceable(428) %9) #24
  br label %15

15:                                               ; preds = %11, %7
  %16 = getelementptr inbounds nuw i8, ptr %0, i64 464
  %17 = getelementptr inbounds nuw i8, ptr %0, i64 352
  br label %18

18:                                               ; preds = %15, %27
  %indvars.iv = phi i64 [ 0, %15 ], [ %indvars.iv.next, %27 ]
  %19 = getelementptr inbounds nuw [14 x i8], ptr %16, i64 0, i64 %indvars.iv
  %20 = load i8, ptr %19, align 1
  %21 = trunc i8 %20 to i1
  br i1 %21, label %22, label %27

22:                                               ; preds = %18
  %23 = getelementptr inbounds nuw [14 x ptr], ptr %17, i64 0, i64 %indvars.iv
  %24 = load ptr, ptr %23, align 8
  %25 = icmp eq ptr %24, null
  br i1 %25, label %27, label %26

26:                                               ; preds = %22
  tail call void @_ZN7glslang13TIntermediateD2Ev(ptr noundef nonnull align 8 dereferenceable(2024) %24) #24
  tail call void @_ZdlPvm(ptr noundef nonnull %24, i64 noundef 2024) #27
  br label %27

27:                                               ; preds = %18, %26, %22
  %indvars.iv.next = add nuw nsw i64 %indvars.iv, 1
  %exitcond.not = icmp eq i64 %indvars.iv.next, 14
  br i1 %exitcond.not, label %28, label %18, !llvm.loop !35

28:                                               ; preds = %27
  %29 = getelementptr inbounds nuw i8, ptr %0, i64 8
  %30 = load ptr, ptr %29, align 8
  %31 = icmp eq ptr %30, null
  br i1 %31, label %.preheader, label %32

32:                                               ; preds = %28
  tail call void @_ZN7glslang14TPoolAllocatorD1Ev(ptr noundef nonnull align 8 dereferenceable(96) %30) #24
  tail call void @_ZdlPvm(ptr noundef nonnull %30, i64 noundef 96) #27
  br label %.preheader

.preheader:                                       ; preds = %32, %28
  br label %33

33:                                               ; preds = %.preheader, %_ZNSt7__cxx114listIPN7glslang7TShaderESaIS3_EED2Ev.exit
  %.idx = phi i64 [ %.add, %_ZNSt7__cxx114listIPN7glslang7TShaderESaIS3_EED2Ev.exit ], [ 352, %.preheader ]
  %.add = add nsw i64 %.idx, -24
  %.ptr8 = getelementptr inbounds i8, ptr %0, i64 %.add
  %34 = load ptr, ptr %.ptr8, align 8
  %.not8.i.i.i = icmp eq ptr %34, %.ptr8
  br i1 %.not8.i.i.i, label %_ZNSt7__cxx114listIPN7glslang7TShaderESaIS3_EED2Ev.exit, label %.lr.ph.i.i.i

.lr.ph.i.i.i:                                     ; preds = %33, %.lr.ph.i.i.i
  %.09.i.i.i = phi ptr [ %35, %.lr.ph.i.i.i ], [ %34, %33 ]
  %35 = load ptr, ptr %.09.i.i.i, align 8
  tail call void @_ZdlPvm(ptr noundef nonnull %.09.i.i.i, i64 noundef 24) #27
  %.not.i.i.i = icmp eq ptr %35, %.ptr8
  br i1 %.not.i.i.i, label %_ZNSt7__cxx114listIPN7glslang7TShaderESaIS3_EED2Ev.exit, label %.lr.ph.i.i.i, !llvm.loop !36

_ZNSt7__cxx114listIPN7glslang7TShaderESaIS3_EED2Ev.exit: ; preds = %.lr.ph.i.i.i, %33
  %36 = icmp eq i64 %.add, 16
  br i1 %36, label %37, label %33

37:                                               ; preds = %_ZNSt7__cxx114listIPN7glslang7TShaderESaIS3_EED2Ev.exit
  ret void
}